target datalayout = "e-m:e-p270:32:32-p271:32:32-p272:64:64-i64:64-i128:128-f80:128-n8:16:32:64-S128"
target triple = "x86_64-pc-linux-gnu"

%class.Node_List = type <{ %class.Node_Array, i32, [4 x i8] }>
%class.Node_Array = type { ptr, i32, ptr }
%class.IdealLoopTree = type <{ ptr, ptr, ptr, ptr, ptr, ptr, i32, i32, %class.Node_List, i16, i8, [5 x i8], ptr, ptr, i8, [7 x i8] }>

; Function Attrs: mustprogress nounwind uwtable
define hidden noundef zeroext i1 @_ZNK13IdealLoopTree9is_memberEPKS_(ptr noundef nonnull align 8 dereferenceable(113) %0, ptr noundef %1) #1 align 2 {
  %3 = alloca ptr, align 8
  %4 = alloca ptr, align 8
  store ptr %0, ptr %3, align 8
  store ptr %1, ptr %4, align 8
  %5 = load ptr, ptr %3, align 8
  br label %6

6:                                                ; preds = %15, %2
  %7 = load ptr, ptr %4, align 8
  %8 = getelementptr inbounds %class.IdealLoopTree, ptr %7, i32 0, i32 9
  %9 = load i16, ptr %8, align 8
  %10 = zext i16 %9 to i32
  %11 = getelementptr inbounds %class.IdealLoopTree, ptr %5, i32 0, i32 9
  %12 = load i16, ptr %11, align 8
  %13 = zext i16 %12 to i32
  %14 = icmp sgt i32 %10, %13
  br i1 %14, label %15, label %19

15:                                               ; preds = %6
  %16 = load ptr, ptr %4, align 8
  %17 = getelementptr inbounds %class.IdealLoopTree, ptr %16, i32 0, i32 0
  %18 = load ptr, ptr %17, align 8
  store ptr %18, ptr %4, align 8
  br label %6, !llvm.loop !38

19:                                               ; preds = %6
  %20 = load ptr, ptr %4, align 8
  %21 = icmp eq ptr %20, %5
  ret i1 %21
}