; Function Attrs: mustprogress nofree norecurse nosync nounwind willreturn memory(read, inaccessiblemem: none) uwtable
define hidden noundef zeroext i1 @_ZNK13IdealLoopTree9is_memberEPKS_(ptr noundef nonnull readonly align 8 dereferenceable(113) %0, ptr noundef readonly %1) local_unnamed_addr #3 align 2 {
  %3 = getelementptr inbounds i8, ptr %0, i64 88
  %4 = load i16, ptr %3, align 8
  %5 = getelementptr inbounds i8, ptr %1, i64 88
  %6 = load i16, ptr %5, align 8
  %7 = icmp ugt i16 %6, %4
  br i1 %7, label %.lr.ph, label %._crit_edge

.lr.ph:                                           ; preds = %2, %.lr.ph
  %.04 = phi ptr [ %8, %.lr.ph ], [ %1, %2 ]
  %8 = load ptr, ptr %.04, align 8
  %9 = getelementptr inbounds i8, ptr %8, i64 88
  %10 = load i16, ptr %9, align 8
  %11 = icmp ugt i16 %10, %4
  br i1 %11, label %.lr.ph, label %._crit_edge, !llvm.loop !15

._crit_edge:                                      ; preds = %.lr.ph, %2
  %.0.lcssa = phi ptr [ %1, %2 ], [ %8, %.lr.ph ]
  %12 = icmp eq ptr %.0.lcssa, %0
  ret i1 %12
}